target datalayout = "e-m:e-p270:32:32-p271:32:32-p272:64:64-i64:64-i128:128-f80:128-n8:16:32:64-S128"
target triple = "x86_64-pc-linux-gnu"

%struct.IDAMemRec = type { ptr, double, ptr, ptr, i32, double, double, ptr, i32, i32, ptr, ptr, i32, i32, [6 x ptr], [6 x double], [6 x double], [6 x double], [6 x double], [6 x double], ptr, ptr, ptr, ptr, ptr, ptr, ptr, ptr, ptr, ptr, ptr, ptr, ptr, ptr, ptr, ptr, ptr, double, ptr, ptr, i32, i32, i32, i32, i32, i32, i32, i32, double, double, double, i32, double, i32, i32, i32, i32, i32, double, double, double, double, double, double, double, double, double, double, double, double, double, double, double, double, i32, i32, i32, i32, i64, double, double, double, double, double, double, double, double, double, i64, i64, i64, i64, i64, i64, i64, i64, i64, i64, i64, double, i32, i32, i32, i32, i32, ptr, i32, ptr, ptr, ptr, ptr, ptr, ptr, ptr, double, i32, ptr, i32, ptr, ptr, double, double, double, ptr, ptr, ptr, double, double, i32, i32, i64, ptr, i32, [6 x double], [5 x double], [6 x ptr], [6 x ptr] }

@.str = private unnamed_addr constant [113 x i8] c"generated/home/dtcxzyw/WorkSpace/Projects/compilers/llvm-opt-benchmark/bench/sundials/sundials/src/ida/ida_nls.c\00", align 1
@.str.1 = private unnamed_addr constant [24 x i8] c"ida_mem = NULL illegal.\00", align 1
@__func__.IDASetNlsResFn = private unnamed_addr constant [15 x i8] c"IDASetNlsResFn\00", align 1

; Function Attrs: nounwind uwtable
define i32 @IDASetNlsResFn(ptr noundef %0, ptr noundef %1) #0 {
  %3 = alloca i32, align 4
  %4 = alloca ptr, align 8
  %5 = alloca ptr, align 8
  %6 = alloca ptr, align 8
  %7 = alloca i32, align 4
  store ptr %0, ptr %4, align 8, !tbaa !3
  store ptr %1, ptr %5, align 8, !tbaa !3
  call void @llvm.lifetime.start.p0(i64 8, ptr %6) #3
  %8 = load ptr, ptr %4, align 8, !tbaa !3
  %9 = icmp eq ptr %8, null
  br i1 %9, label %10, label %11

10:                                               ; preds = %2
  call void (ptr, i32, i32, ptr, ptr, ptr, ...) @IDAProcessError(ptr noundef null, i32 noundef -20, i32 noundef 143, ptr noundef @__func__.IDASetNlsResFn, ptr noundef @.str, ptr noundef @.str.1)
  store i32 -20, ptr %3, align 4
  store i32 1, ptr %7, align 4
  br label %26

11:                                               ; preds = %2
  %12 = load ptr, ptr %4, align 8, !tbaa !3
  store ptr %12, ptr %6, align 8, !tbaa !9
  %13 = load ptr, ptr %5, align 8, !tbaa !3
  %14 = icmp ne ptr %13, null
  br i1 %14, label %15, label %19

15:                                               ; preds = %11
  %16 = load ptr, ptr %5, align 8, !tbaa !3
  %17 = load ptr, ptr %6, align 8, !tbaa !9
  %18 = getelementptr inbounds nuw %struct.IDAMemRec, ptr %17, i32 0, i32 107
  store ptr %16, ptr %18, align 8, !tbaa !30
  br label %25

19:                                               ; preds = %11
  %20 = load ptr, ptr %6, align 8, !tbaa !9
  %21 = getelementptr inbounds nuw %struct.IDAMemRec, ptr %20, i32 0, i32 2
  %22 = load ptr, ptr %21, align 8, !tbaa !29
  %23 = load ptr, ptr %6, align 8, !tbaa !9
  %24 = getelementptr inbounds nuw %struct.IDAMemRec, ptr %23, i32 0, i32 107
  store ptr %22, ptr %24, align 8, !tbaa !30
  br label %25

25:                                               ; preds = %19, %15
  store i32 0, ptr %3, align 4
  store i32 1, ptr %7, align 4
  br label %26

26:                                               ; preds = %25, %10
  call void @llvm.lifetime.end.p0(i64 8, ptr %6) #3
  %27 = load i32, ptr %3, align 4
  ret i32 %27
}